; Function Attrs: mustprogress uwtable
define dso_local void @_ZNK4pbrt7TexInfo8ToStringB5cxx11Ev(ptr noalias nonnull sret(%"class.std::__cxx11::basic_string") align 8 %agg.result, ptr noundef nonnull align 8 dereferenceable(56) %this) local_unnamed_addr #0 align 2 personality ptr @__gxx_personality_v0 {
entry:
  %filterOptions = getelementptr inbounds i8, ptr %this, i64 32
  %wrapMode = getelementptr inbounds i8, ptr %this, i64 40
  %encoding = getelementptr inbounds i8, ptr %this, i64 48
  tail call void @_ZNSt7__cxx1112basic_stringIcSt11char_traitsIcESaIcEEC1Ev(ptr noundef nonnull align 8 dereferenceable(32) %agg.result) #23
  invoke void @_ZN4pbrt6detail21stringPrintfRecursiveIRKNSt7__cxx1112basic_stringIcSt11char_traitsIcESaIcEEEJRKNS_19MIPMapFilterOptionsERKNS_8WrapModeERKNS_13ColorEncodingEEEEvPS7_PKcOT_DpOT0_(ptr noundef nonnull %agg.result, ptr noundef nonnull @.str.50, ptr noundef nonnull align 8 dereferenceable(32) %this, ptr noundef nonnull align 4 dereferenceable(8) %filterOptions, ptr noundef nonnull align 4 dereferenceable(4) %wrapMode, ptr noundef nonnull align 8 dereferenceable(8) %encoding)
          to label %_ZN4pbrt12StringPrintfIJRKNSt7__cxx1112basic_stringIcSt11char_traitsIcESaIcEEERKNS_19MIPMapFilterOptionsERKNS_8WrapModeERKNS_13ColorEncodingEEEES6_PKcDpOT_.exit unwind label %lpad.i

lpad.i:                                           ; preds = %entry
  %0 = landingpad { ptr, i32 }
          cleanup
  tail call void @_ZNSt7__cxx1112basic_stringIcSt11char_traitsIcESaIcEED1Ev(ptr noundef nonnull align 8 dereferenceable(32) %agg.result) #23
  resume { ptr, i32 } %0

_ZN4pbrt12StringPrintfIJRKNSt7__cxx1112basic_stringIcSt11char_traitsIcESaIcEEERKNS_19MIPMapFilterOptionsERKNS_8WrapModeERKNS_13ColorEncodingEEEES6_PKcDpOT_.exit: ; preds = %entry
  ret void
}